target datalayout = "e-m:e-p270:32:32-p271:32:32-p272:64:64-i64:64-i128:128-f80:128-n8:16:32:64-S128"
target triple = "x86_64-pc-linux-gnu"

%struct.AVCodecContext = type { ptr, i32, i32, ptr, i32, i32, ptr, ptr, ptr, i64, i32, i32, ptr, i32, %struct.AVRational, %struct.AVRational, %struct.AVRational, i32, i32, i32, i32, i32, %struct.AVRational, i32, i32, i32, i32, i32, i32, i32, i32, i32, i32, i32, ptr, ptr, i32, float, float, float, float, float, float, float, float, float, i32, i32, i32, i32, i32, i32, i32, i32, i32, i32, i32, i32, ptr, ptr, ptr, i32, i32, i32, i32, i32, i32, i32, i32, i32, i32, %struct.AVChannelLayout, i32, i32, i32, i32, i32, i32, i32, i32, ptr, i32, i32, i32, float, float, i32, i32, i32, i32, i32, ptr, i64, i64, float, float, i32, i32, ptr, ptr, i32, i32, i32, i32, i32, ptr, ptr, ptr, ptr, i32, i32, [8 x i64], i32, i32, i32, i32, i32, i32, i32, ptr, ptr, i32, i32, i32, i32, i32, i32, i32, i32, i32, i32, ptr, ptr, i32, i32, ptr, ptr, ptr, ptr, i32, i32, i64, i32, i32, i64, ptr, i64, ptr, i32, ptr, i32 }
%struct.AVRational = type { i32, i32 }
%struct.AVChannelLayout = type { i32, i32, %union.anon, ptr }
%union.anon = type { i64 }
%struct.MJpegDecodeContext = type { ptr, ptr, %struct.GetBitContext, i32, i32, i32, ptr, [4 x [64 x i16]], [3 x [4 x %struct.VLC]], [4 x i32], i32, i32, i32, i32, i32, i32, i32, i32, i32, [4 x i8], [4 x i8], i32, i32, i32, i32, i32, i32, i32, i32, i32, i32, i32, i32, i32, i32, i32, i32, i32, [4 x i32], [4 x i32], [4 x i32], [4 x i32], [4 x i32], [4 x i32], [4 x i32], [4 x i32], [4 x i32], [4 x i32], [4 x i32], i32, i32, [4 x i32], [4 x i32], ptr, ptr, i32, [4 x i32], ptr, [64 x i16], [4 x ptr], [4 x ptr], [4 x i64], i32, i32, [64 x i8], %struct.BlockDSPContext, %struct.HpelDSPContext, %struct.IDCTDSPContext, i32, i32, i32, i32, i32, i32, i32, i32, i32, ptr, i32, i32, ptr, ptr, ptr, ptr, i32, i32, ptr, i32, i32, ptr, i64, ptr, i64, [2 x [4 x [16 x i8]]], [2 x [4 x [256 x i8]]], i32, i32, ptr, ptr, [8 x i8] }
%struct.GetBitContext = type { ptr, ptr, i32, i32, i32 }
%struct.VLC = type { i32, ptr, i32, i32 }
%struct.BlockDSPContext = type { ptr, ptr, [2 x ptr] }
%struct.HpelDSPContext = type { [4 x [4 x ptr]], [4 x [4 x ptr]], [4 x [4 x ptr]], [4 x ptr] }
%struct.IDCTDSPContext = type { ptr, ptr, ptr, ptr, ptr, ptr, [64 x i8], i32, i32 }
%struct.ICCEntry = type { ptr, i32 }

@.str.78 = private unnamed_addr constant [14 x i8] c"Single field\0A\00", align 1

; Function Attrs: nounwind uwtable
define internal void @reset_icc_profile(ptr noundef %0) #3 {
  %2 = alloca ptr, align 8
  %3 = alloca i32, align 4
  store ptr %0, ptr %2, align 8, !tbaa !29
  call void @llvm.lifetime.start.p0(i64 4, ptr %3) #13
  %4 = load ptr, ptr %2, align 8, !tbaa !29
  %5 = getelementptr inbounds nuw %struct.MJpegDecodeContext, ptr %4, i32 0, i32 83
  %6 = load ptr, ptr %5, align 16, !tbaa !259
  %7 = icmp ne ptr %6, null
  br i1 %7, label %8, label %29

8:                                                ; preds = %1
  store i32 0, ptr %3, align 4, !tbaa !57
  br label %9

9:                                                ; preds = %23, %8
  %10 = load i32, ptr %3, align 4, !tbaa !57
  %11 = load ptr, ptr %2, align 8, !tbaa !29
  %12 = getelementptr inbounds nuw %struct.MJpegDecodeContext, ptr %11, i32 0, i32 84
  %13 = load i32, ptr %12, align 8, !tbaa !231
  %14 = icmp slt i32 %10, %13
  br i1 %14, label %15, label %26

15:                                               ; preds = %9
  %16 = load ptr, ptr %2, align 8, !tbaa !29
  %17 = getelementptr inbounds nuw %struct.MJpegDecodeContext, ptr %16, i32 0, i32 83
  %18 = load ptr, ptr %17, align 16, !tbaa !259
  %19 = load i32, ptr %3, align 4, !tbaa !57
  %20 = sext i32 %19 to i64
  %21 = getelementptr inbounds %struct.ICCEntry, ptr %18, i64 %20
  %22 = getelementptr inbounds nuw %struct.ICCEntry, ptr %21, i32 0, i32 0
  call void @av_freep(ptr noundef %22)
  br label %23

23:                                               ; preds = %15
  %24 = load i32, ptr %3, align 4, !tbaa !57
  %25 = add nsw i32 %24, 1
  store i32 %25, ptr %3, align 4, !tbaa !57
  br label %9, !llvm.loop !273

26:                                               ; preds = %9
  %27 = load ptr, ptr %2, align 8, !tbaa !29
  %28 = getelementptr inbounds nuw %struct.MJpegDecodeContext, ptr %27, i32 0, i32 83
  call void @av_freep(ptr noundef %28)
  br label %29

29:                                               ; preds = %26, %1
  %30 = load ptr, ptr %2, align 8, !tbaa !29
  %31 = getelementptr inbounds nuw %struct.MJpegDecodeContext, ptr %30, i32 0, i32 85
  store i32 0, ptr %31, align 4, !tbaa !258
  %32 = load ptr, ptr %2, align 8, !tbaa !29
  %33 = getelementptr inbounds nuw %struct.MJpegDecodeContext, ptr %32, i32 0, i32 84
  store i32 0, ptr %33, align 8, !tbaa !231
  call void @llvm.lifetime.end.p0(i64 4, ptr %3) #13
  ret void
}

; Function Attrs: cold nounwind optsize uwtable
define i32 @ff_mjpeg_decode_end(ptr noundef %0) #0 {
  %2 = alloca ptr, align 8
  %3 = alloca ptr, align 8
  %4 = alloca i32, align 4
  %5 = alloca i32, align 4
  store ptr %0, ptr %2, align 8, !tbaa !4
  call void @llvm.lifetime.start.p0(i64 8, ptr %3) #13
  %6 = load ptr, ptr %2, align 8, !tbaa !4
  %7 = getelementptr inbounds nuw %struct.AVCodecContext, ptr %6, i32 0, i32 6
  %8 = load ptr, ptr %7, align 8, !tbaa !9
  store ptr %8, ptr %3, align 8, !tbaa !29
  call void @llvm.lifetime.start.p0(i64 4, ptr %4) #13
  call void @llvm.lifetime.start.p0(i64 4, ptr %5) #13
  %9 = load ptr, ptr %3, align 8, !tbaa !29
  %10 = getelementptr inbounds nuw %struct.MJpegDecodeContext, ptr %9, i32 0, i32 12
  %11 = load i32, ptr %10, align 16, !tbaa !109
  %12 = icmp ne i32 %11, 0
  br i1 %12, label %13, label %36

13:                                               ; preds = %1
  %14 = load ptr, ptr %3, align 8, !tbaa !29
  %15 = getelementptr inbounds nuw %struct.MJpegDecodeContext, ptr %14, i32 0, i32 13
  %16 = load i32, ptr %15, align 4, !tbaa !113
  %17 = load ptr, ptr %3, align 8, !tbaa !29
  %18 = getelementptr inbounds nuw %struct.MJpegDecodeContext, ptr %17, i32 0, i32 72
  %19 = load i32, ptr %18, align 16, !tbaa !62
  %20 = icmp ne i32 %19, 0
  %21 = xor i1 %20, true
  %22 = zext i1 %21 to i32
  %23 = icmp eq i32 %16, %22
  br i1 %23, label %24, label %36

24:                                               ; preds = %13
  %25 = load ptr, ptr %3, align 8, !tbaa !29
  %26 = getelementptr inbounds nuw %struct.MJpegDecodeContext, ptr %25, i32 0, i32 55
  %27 = load i32, ptr %26, align 16, !tbaa !50
  %28 = icmp ne i32 %27, 0
  br i1 %28, label %29, label %36

29:                                               ; preds = %24
  %30 = load ptr, ptr %2, align 8, !tbaa !4
  %31 = getelementptr inbounds nuw %struct.AVCodecContext, ptr %30, i32 0, i32 146
  %32 = load i64, ptr %31, align 8, !tbaa !289
  %33 = icmp ne i64 %32, 0
  br i1 %33, label %36, label %34

34:                                               ; preds = %29
  %35 = load ptr, ptr %2, align 8, !tbaa !4
  call void (ptr, i32, ptr, ...) @av_log(ptr noundef %35, i32 noundef 32, ptr noundef @.str.78)
  br label %36

36:                                               ; preds = %34, %29, %24, %13, %1
  %37 = load ptr, ptr %3, align 8, !tbaa !29
  %38 = getelementptr inbounds nuw %struct.MJpegDecodeContext, ptr %37, i32 0, i32 53
  call void @av_frame_free(ptr noundef %38)
  %39 = load ptr, ptr %3, align 8, !tbaa !29
  %40 = getelementptr inbounds nuw %struct.MJpegDecodeContext, ptr %39, i32 0, i32 54
  store ptr null, ptr %40, align 8, !tbaa !31
  %41 = load ptr, ptr %3, align 8, !tbaa !29
  %42 = getelementptr inbounds nuw %struct.MJpegDecodeContext, ptr %41, i32 0, i32 86
  call void @av_frame_free(ptr noundef %42)
  %43 = load ptr, ptr %3, align 8, !tbaa !29
  %44 = getelementptr inbounds nuw %struct.MJpegDecodeContext, ptr %43, i32 0, i32 6
  call void @av_freep(ptr noundef %44)
  %45 = load ptr, ptr %3, align 8, !tbaa !29
  %46 = getelementptr inbounds nuw %struct.MJpegDecodeContext, ptr %45, i32 0, i32 81
  call void @av_freep(ptr noundef %46)
  %47 = load ptr, ptr %3, align 8, !tbaa !29
  %48 = getelementptr inbounds nuw %struct.MJpegDecodeContext, ptr %47, i32 0, i32 77
  call void @av_freep(ptr noundef %48)
  %49 = load ptr, ptr %3, align 8, !tbaa !29
  %50 = getelementptr inbounds nuw %struct.MJpegDecodeContext, ptr %49, i32 0, i32 78
  store i32 0, ptr %50, align 16, !tbaa !290
  store i32 0, ptr %4, align 4, !tbaa !57
  br label %51

51:                                               ; preds = %71, %36
  %52 = load i32, ptr %4, align 4, !tbaa !57
  %53 = icmp slt i32 %52, 3
  br i1 %53, label %54, label %74

54:                                               ; preds = %51
  store i32 0, ptr %5, align 4, !tbaa !57
  br label %55

55:                                               ; preds = %67, %54
  %56 = load i32, ptr %5, align 4, !tbaa !57
  %57 = icmp slt i32 %56, 4
  br i1 %57, label %58, label %70

58:                                               ; preds = %55
  %59 = load ptr, ptr %3, align 8, !tbaa !29
  %60 = getelementptr inbounds nuw %struct.MJpegDecodeContext, ptr %59, i32 0, i32 8
  %61 = load i32, ptr %4, align 4, !tbaa !57
  %62 = sext i32 %61 to i64
  %63 = getelementptr inbounds [3 x [4 x %struct.VLC]], ptr %60, i64 0, i64 %62
  %64 = load i32, ptr %5, align 4, !tbaa !57
  %65 = sext i32 %64 to i64
  %66 = getelementptr inbounds [4 x %struct.VLC], ptr %63, i64 0, i64 %65
  call void @ff_vlc_free(ptr noundef %66)
  br label %67

67:                                               ; preds = %58
  %68 = load i32, ptr %5, align 4, !tbaa !57
  %69 = add nsw i32 %68, 1
  store i32 %69, ptr %5, align 4, !tbaa !57
  br label %55, !llvm.loop !291

70:                                               ; preds = %55
  br label %71

71:                                               ; preds = %70
  %72 = load i32, ptr %4, align 4, !tbaa !57
  %73 = add nsw i32 %72, 1
  store i32 %73, ptr %4, align 4, !tbaa !57
  br label %51, !llvm.loop !292

74:                                               ; preds = %51
  store i32 0, ptr %4, align 4, !tbaa !57
  br label %75

75:                                               ; preds = %89, %74
  %76 = load i32, ptr %4, align 4, !tbaa !57
  %77 = icmp slt i32 %76, 4
  br i1 %77, label %78, label %92

78:                                               ; preds = %75
  %79 = load ptr, ptr %3, align 8, !tbaa !29
  %80 = getelementptr inbounds nuw %struct.MJpegDecodeContext, ptr %79, i32 0, i32 59
  %81 = load i32, ptr %4, align 4, !tbaa !57
  %82 = sext i32 %81 to i64
  %83 = getelementptr inbounds [4 x ptr], ptr %80, i64 0, i64 %82
  call void @av_freep(ptr noundef %83)
  %84 = load ptr, ptr %3, align 8, !tbaa !29
  %85 = getelementptr inbounds nuw %struct.MJpegDecodeContext, ptr %84, i32 0, i32 60
  %86 = load i32, ptr %4, align 4, !tbaa !57
  %87 = sext i32 %86 to i64
  %88 = getelementptr inbounds [4 x ptr], ptr %85, i64 0, i64 %87
  call void @av_freep(ptr noundef %88)
  br label %89

89:                                               ; preds = %78
  %90 = load i32, ptr %4, align 4, !tbaa !57
  %91 = add nsw i32 %90, 1
  store i32 %91, ptr %4, align 4, !tbaa !57
  br label %75, !llvm.loop !293

92:                                               ; preds = %75
  %93 = load ptr, ptr %3, align 8, !tbaa !29
  %94 = getelementptr inbounds nuw %struct.MJpegDecodeContext, ptr %93, i32 0, i32 80
  call void @av_dict_free(ptr noundef %94)
  %95 = load ptr, ptr %3, align 8, !tbaa !29
  call void @reset_icc_profile(ptr noundef %95)
  %96 = load ptr, ptr %3, align 8, !tbaa !29
  %97 = getelementptr inbounds nuw %struct.MJpegDecodeContext, ptr %96, i32 0, i32 97
  call void @av_freep(ptr noundef %97)
  %98 = load ptr, ptr %3, align 8, !tbaa !29
  %99 = getelementptr inbounds nuw %struct.MJpegDecodeContext, ptr %98, i32 0, i32 98
  call void @av_freep(ptr noundef %99)
  call void @llvm.lifetime.end.p0(i64 4, ptr %5) #13
  call void @llvm.lifetime.end.p0(i64 4, ptr %4) #13
  call void @llvm.lifetime.end.p0(i64 8, ptr %3) #13
  ret i32 0
}