; Function Attrs: cold nounwind optsize uwtable
define noundef i32 @ff_mjpeg_decode_end(ptr noundef %0) #0 {
  %2 = getelementptr inbounds nuw i8, ptr %0, i64 32
  %3 = load ptr, ptr %2, align 8, !tbaa !4
  %4 = getelementptr inbounds nuw i8, ptr %3, i64 896
  %5 = load i32, ptr %4, align 16, !tbaa !101
  %.not = icmp eq i32 %5, 0
  br i1 %.not, label %20, label %6

6:                                                ; preds = %1
  %7 = getelementptr inbounds nuw i8, ptr %3, i64 900
  %8 = load i32, ptr %7, align 4, !tbaa !105
  %9 = getelementptr inbounds nuw i8, ptr %3, i64 2144
  %10 = load i32, ptr %9, align 16, !tbaa !63
  %.not31 = icmp eq i32 %10, 0
  %11 = zext i1 %.not31 to i32
  %12 = icmp eq i32 %8, %11
  br i1 %12, label %13, label %20

13:                                               ; preds = %6
  %14 = getelementptr inbounds nuw i8, ptr %3, i64 1232
  %15 = load i32, ptr %14, align 16, !tbaa !47
  %.not32 = icmp eq i32 %15, 0
  br i1 %.not32, label %20, label %16

16:                                               ; preds = %13
  %17 = getelementptr inbounds nuw i8, ptr %0, i64 824
  %18 = load i64, ptr %17, align 8, !tbaa !274
  %.not33 = icmp eq i64 %18, 0
  br i1 %.not33, label %19, label %20

19:                                               ; preds = %16
  tail call void (ptr, i32, ptr, ...) @av_log(ptr noundef nonnull %0, i32 noundef 32, ptr noundef nonnull @.str.78) #14
  br label %20

20:                                               ; preds = %19, %16, %13, %6, %1
  %21 = getelementptr inbounds nuw i8, ptr %3, i64 1216
  tail call void @av_frame_free(ptr noundef nonnull %21) #14
  %22 = getelementptr inbounds nuw i8, ptr %3, i64 1224
  store ptr null, ptr %22, align 8, !tbaa !27
  %23 = getelementptr inbounds nuw i8, ptr %3, i64 2224
  tail call void @av_frame_free(ptr noundef nonnull %23) #14
  %24 = getelementptr inbounds nuw i8, ptr %3, i64 64
  tail call void @av_freep(ptr noundef nonnull %24) #14
  %25 = getelementptr inbounds nuw i8, ptr %3, i64 2192
  tail call void @av_freep(ptr noundef nonnull %25) #14
  %26 = getelementptr inbounds nuw i8, ptr %3, i64 2168
  tail call void @av_freep(ptr noundef nonnull %26) #14
  %27 = getelementptr inbounds nuw i8, ptr %3, i64 2176
  store i32 0, ptr %27, align 16, !tbaa !275
  %28 = getelementptr inbounds nuw i8, ptr %3, i64 584
  br label %.preheader34

.preheader34:                                     ; preds = %20, %33
  %indvars.iv39 = phi i64 [ 0, %20 ], [ %indvars.iv.next40, %33 ]
  br label %31

.preheader:                                       ; preds = %33
  %29 = getelementptr inbounds nuw i8, ptr %3, i64 1392
  %30 = getelementptr inbounds nuw i8, ptr %3, i64 1424
  br label %34

31:                                               ; preds = %.preheader34, %31
  %indvars.iv = phi i64 [ 0, %.preheader34 ], [ %indvars.iv.next, %31 ]
  %32 = getelementptr inbounds nuw [3 x [4 x %struct.VLC]], ptr %28, i64 0, i64 %indvars.iv39, i64 %indvars.iv
  tail call void @ff_vlc_free(ptr noundef nonnull %32) #14
  %indvars.iv.next = add nuw nsw i64 %indvars.iv, 1
  %exitcond.not = icmp eq i64 %indvars.iv.next, 4
  br i1 %exitcond.not, label %33, label %31, !llvm.loop !276

33:                                               ; preds = %31
  %indvars.iv.next40 = add nuw nsw i64 %indvars.iv39, 1
  %exitcond42.not = icmp eq i64 %indvars.iv.next40, 3
  br i1 %exitcond42.not, label %.preheader, label %.preheader34, !llvm.loop !277

34:                                               ; preds = %.preheader, %34
  %indvars.iv43 = phi i64 [ 0, %.preheader ], [ %indvars.iv.next44, %34 ]
  %35 = getelementptr inbounds nuw [4 x ptr], ptr %29, i64 0, i64 %indvars.iv43
  tail call void @av_freep(ptr noundef nonnull %35) #14
  %36 = getelementptr inbounds nuw [4 x ptr], ptr %30, i64 0, i64 %indvars.iv43
  tail call void @av_freep(ptr noundef nonnull %36) #14
  %indvars.iv.next44 = add nuw nsw i64 %indvars.iv43, 1
  %exitcond46.not = icmp eq i64 %indvars.iv.next44, 4
  br i1 %exitcond46.not, label %37, label %34, !llvm.loop !278

37:                                               ; preds = %34
  %38 = getelementptr inbounds nuw i8, ptr %3, i64 2184
  tail call void @av_dict_free(ptr noundef nonnull %38) #14
  %39 = getelementptr inbounds nuw i8, ptr %3, i64 2208
  %40 = load ptr, ptr %39, align 16, !tbaa !217
  %.not.i = icmp eq ptr %40, null
  br i1 %.not.i, label %reset_icc_profile.exit, label %.preheader.i

.preheader.i:                                     ; preds = %37
  %41 = getelementptr inbounds nuw i8, ptr %3, i64 2216
  %42 = load i32, ptr %41, align 8, !tbaa !216
  %43 = icmp sgt i32 %42, 0
  br i1 %43, label %.lr.ph.i, label %._crit_edge.i

.lr.ph.i:                                         ; preds = %.preheader.i, %.lr.ph.i
  %indvars.iv.i = phi i64 [ %indvars.iv.next.i, %.lr.ph.i ], [ 0, %.preheader.i ]
  %44 = load ptr, ptr %39, align 16, !tbaa !217
  %45 = getelementptr inbounds nuw %struct.ICCEntry, ptr %44, i64 %indvars.iv.i
  tail call void @av_freep(ptr noundef %45) #14
  %indvars.iv.next.i = add nuw nsw i64 %indvars.iv.i, 1
  %46 = load i32, ptr %41, align 8, !tbaa !216
  %47 = sext i32 %46 to i64
  %48 = icmp slt i64 %indvars.iv.next.i, %47
  br i1 %48, label %.lr.ph.i, label %._crit_edge.i, !llvm.loop !218

._crit_edge.i:                                    ; preds = %.lr.ph.i, %.preheader.i
  tail call void @av_freep(ptr noundef nonnull %39) #14
  br label %reset_icc_profile.exit

reset_icc_profile.exit:                           ; preds = %37, %._crit_edge.i
  %49 = getelementptr inbounds nuw i8, ptr %3, i64 2220
  store i32 0, ptr %49, align 4, !tbaa !219
  %50 = getelementptr inbounds nuw i8, ptr %3, i64 2216
  store i32 0, ptr %50, align 8, !tbaa !216
  %51 = getelementptr inbounds nuw i8, ptr %3, i64 4456
  tail call void @av_freep(ptr noundef nonnull %51) #14
  %52 = getelementptr inbounds nuw i8, ptr %3, i64 4464
  tail call void @av_freep(ptr noundef nonnull %52) #14
  ret i32 0
}